target datalayout = "e-m:e-p270:32:32-p271:32:32-p272:64:64-i64:64-i128:128-f80:128-n8:16:32:64-S128"
target triple = "x86_64-pc-linux-gnu"

%"class.gmx::(anonymous namespace)::ElectricField" = type { %"class.gmx::IMDModule", %"class.gmx::IMdpOptionProvider", %"class.gmx::IMDOutputProvider", %"class.gmx::IForceProvider", [3 x %"class.gmx::(anonymous namespace)::ElectricFieldDimension"], ptr }
%"class.gmx::IMDModule" = type { ptr }
%"class.gmx::IMdpOptionProvider" = type { ptr }
%"class.gmx::IMDOutputProvider" = type { ptr }
%"class.gmx::IForceProvider" = type { ptr }
%"class.gmx::(anonymous namespace)::ElectricFieldDimension" = type { float, float, float, float }

; Function Attrs: mustprogress nounwind uwtable
define internal noundef float @_ZNK3gmx12_GLOBAL__N_122ElectricFieldDimension1aEv(ptr noundef nonnull align 4 dereferenceable(16) %0) #1 align 2 {
  %2 = alloca ptr, align 8
  store ptr %0, ptr %2, align 8
  %3 = load ptr, ptr %2, align 8
  %4 = getelementptr inbounds %"class.gmx::(anonymous namespace)::ElectricFieldDimension", ptr %3, i32 0, i32 0
  %5 = load float, ptr %4, align 4
  ret float %5
}

; Function Attrs: mustprogress uwtable
define internal noundef zeroext i1 @_ZNK3gmx12_GLOBAL__N_113ElectricField8isActiveEv(ptr noundef nonnull align 8 dereferenceable(88) %0) #0 align 2 {
  %2 = alloca ptr, align 8
  store ptr %0, ptr %2, align 8
  %3 = load ptr, ptr %2, align 8
  %4 = getelementptr inbounds %"class.gmx::(anonymous namespace)::ElectricField", ptr %3, i32 0, i32 4
  %5 = getelementptr inbounds [3 x %"class.gmx::(anonymous namespace)::ElectricFieldDimension"], ptr %4, i64 0, i64 0
  %6 = call noundef float @_ZNK3gmx12_GLOBAL__N_122ElectricFieldDimension1aEv(ptr noundef nonnull align 4 dereferenceable(16) %5)
  %7 = fcmp une float %6, 0.000000e+00
  br i1 %7, label %18, label %8

8:                                                ; preds = %1
  %9 = getelementptr inbounds %"class.gmx::(anonymous namespace)::ElectricField", ptr %3, i32 0, i32 4
  %10 = getelementptr inbounds [3 x %"class.gmx::(anonymous namespace)::ElectricFieldDimension"], ptr %9, i64 0, i64 1
  %11 = call noundef float @_ZNK3gmx12_GLOBAL__N_122ElectricFieldDimension1aEv(ptr noundef nonnull align 4 dereferenceable(16) %10)
  %12 = fcmp une float %11, 0.000000e+00
  br i1 %12, label %18, label %13

13:                                               ; preds = %8
  %14 = getelementptr inbounds %"class.gmx::(anonymous namespace)::ElectricField", ptr %3, i32 0, i32 4
  %15 = getelementptr inbounds [3 x %"class.gmx::(anonymous namespace)::ElectricFieldDimension"], ptr %14, i64 0, i64 2
  %16 = call noundef float @_ZNK3gmx12_GLOBAL__N_122ElectricFieldDimension1aEv(ptr noundef nonnull align 4 dereferenceable(16) %15)
  %17 = fcmp une float %16, 0.000000e+00
  br label %18

18:                                               ; preds = %13, %8, %1
  %19 = phi i1 [ true, %8 ], [ true, %1 ], [ %17, %13 ]
  ret i1 %19
}

; Function Attrs: mustprogress uwtable
define internal void @_ZN3gmx12_GLOBAL__N_113ElectricField18initForceProvidersEPNS_14ForceProvidersE(ptr noundef nonnull align 8 dereferenceable(88) %0, ptr noundef %1) unnamed_addr #0 align 2 {
  %3 = alloca ptr, align 8
  %4 = alloca ptr, align 8
  store ptr %0, ptr %3, align 8
  store ptr %1, ptr %4, align 8
  %5 = load ptr, ptr %3, align 8
  %6 = call noundef zeroext i1 @_ZNK3gmx12_GLOBAL__N_113ElectricField8isActiveEv(ptr noundef nonnull align 8 dereferenceable(88) %5)
  br i1 %6, label %7, label %10

7:                                                ; preds = %2
  %8 = load ptr, ptr %4, align 8
  %9 = getelementptr inbounds i8, ptr %5, i64 24
  call void @_ZN3gmx14ForceProviders16addForceProviderEPNS_14IForceProviderE(ptr noundef nonnull align 8 dereferenceable(8) %8, ptr noundef %9)
  br label %10

10:                                               ; preds = %7, %2
  ret void
}