; Function Attrs: mustprogress uwtable
define internal void @_ZN3gmx12_GLOBAL__N_113ElectricField18initForceProvidersEPNS_14ForceProvidersE(ptr noundef nonnull align 8 dereferenceable(88) %0, ptr noundef %1) unnamed_addr #0 align 2 {
  %3 = getelementptr inbounds i8, ptr %0, i64 32
  %.val.i = load float, ptr %3, align 8
  %4 = fcmp une float %.val.i, 0.000000e+00
  %5 = getelementptr inbounds i8, ptr %0, i64 48
  %.val1.i = load float, ptr %5, align 8
  %6 = fcmp une float %.val1.i, 0.000000e+00
  %or.cond.i = select i1 %4, i1 true, i1 %6
  %7 = getelementptr inbounds i8, ptr %0, i64 64
  %.val2.i = load float, ptr %7, align 8
  %8 = fcmp une float %.val2.i, 0.000000e+00
  %or.cond = select i1 %or.cond.i, i1 true, i1 %8
  br i1 %or.cond, label %_ZNK3gmx12_GLOBAL__N_113ElectricField8isActiveEv.exit.thread, label %10

_ZNK3gmx12_GLOBAL__N_113ElectricField8isActiveEv.exit.thread: ; preds = %2
  %9 = getelementptr inbounds i8, ptr %0, i64 24
  tail call void @_ZN3gmx14ForceProviders16addForceProviderEPNS_14IForceProviderE(ptr noundef nonnull align 8 dereferenceable(8) %1, ptr noundef nonnull %9)
  br label %10

10:                                               ; preds = %2, %_ZNK3gmx12_GLOBAL__N_113ElectricField8isActiveEv.exit.thread
  ret void
}